; Function Attrs: mustprogress uwtable
define void @_ZN6icu_7510UXMLParser11scanContentER10UErrorCode(ptr noalias sret(%"class.icu_75::UnicodeString") align 8 %agg.result, ptr noundef nonnull align 8 dereferenceable(4576) %this, ptr noundef nonnull align 4 dereferenceable(4) %status) local_unnamed_addr #1 align 2 personality ptr @__gxx_personality_v0 {
entry:
  %ref.tmp = alloca %"class.icu_75::UnicodeString", align 8
  %ref.tmp7 = alloca %"class.icu_75::UnicodeString", align 8
  store ptr getelementptr inbounds ({ [13 x ptr] }, ptr @_ZTVN6icu_7513UnicodeStringE, i64 0, i32 0, i64 2), ptr %agg.result, align 8
  %fUnion2.i = getelementptr inbounds i8, ptr %agg.result, i64 8
  store i16 2, ptr %fUnion2.i, align 8
  %mXMLCharData = getelementptr inbounds i8, ptr %this, i64 2696
  %fPos = getelementptr inbounds i8, ptr %this, i64 4504
  %0 = load i32, ptr %fPos, align 8
  %conv = sext i32 %0 to i64
  %call = invoke noundef signext i8 @_ZN6icu_7512RegexMatcher9lookingAtElR10UErrorCode(ptr noundef nonnull align 8 dereferenceable(336) %mXMLCharData, i64 noundef %conv, ptr noundef nonnull align 4 dereferenceable(4) %status)
          to label %invoke.cont unwind label %lpad

invoke.cont:                                      ; preds = %entry
  %tobool.not = icmp eq i8 %call, 0
  br i1 %tobool.not, label %nrvo.skipdtor, label %if.then

if.then:                                          ; preds = %invoke.cont
  invoke void @_ZNK6icu_7512RegexMatcher5groupEiR10UErrorCode(ptr nonnull sret(%"class.icu_75::UnicodeString") align 8 %ref.tmp, ptr noundef nonnull align 8 dereferenceable(336) %mXMLCharData, i32 noundef 0, ptr noundef nonnull align 4 dereferenceable(4) %status)
          to label %invoke.cont3 unwind label %lpad

invoke.cont3:                                     ; preds = %if.then
  %call4 = call noundef nonnull align 8 dereferenceable(64) ptr @_ZN6icu_7513UnicodeStringaSEOS0_(ptr noundef nonnull align 8 dereferenceable(64) %agg.result, ptr noundef nonnull align 8 dereferenceable(64) %ref.tmp) #11
  call void @_ZN6icu_7513UnicodeStringD1Ev(ptr noundef nonnull align 8 dereferenceable(64) %ref.tmp) #11
  %mNewLineNormalizer = getelementptr inbounds i8, ptr %this, i64 3704
  %call6 = invoke noundef nonnull align 8 dereferenceable(336) ptr @_ZN6icu_7512RegexMatcher5resetERKNS_13UnicodeStringE(ptr noundef nonnull align 8 dereferenceable(336) %mNewLineNormalizer, ptr noundef nonnull align 8 dereferenceable(64) %agg.result)
          to label %invoke.cont5 unwind label %lpad

invoke.cont5:                                     ; preds = %invoke.cont3
  %fOneLF = getelementptr inbounds i8, ptr %this, i64 4512
  invoke void @_ZN6icu_7512RegexMatcher10replaceAllERKNS_13UnicodeStringER10UErrorCode(ptr nonnull sret(%"class.icu_75::UnicodeString") align 8 %ref.tmp7, ptr noundef nonnull align 8 dereferenceable(336) %mNewLineNormalizer, ptr noundef nonnull align 8 dereferenceable(64) %fOneLF, ptr noundef nonnull align 4 dereferenceable(4) %status)
          to label %invoke.cont9 unwind label %lpad

invoke.cont9:                                     ; preds = %invoke.cont5
  %call10 = call noundef nonnull align 8 dereferenceable(64) ptr @_ZN6icu_7513UnicodeStringaSEOS0_(ptr noundef nonnull align 8 dereferenceable(64) %agg.result, ptr noundef nonnull align 8 dereferenceable(64) %ref.tmp7) #11
  call void @_ZN6icu_7513UnicodeStringD1Ev(ptr noundef nonnull align 8 dereferenceable(64) %ref.tmp7) #11
  %call13 = invoke noundef i32 @_ZNK6icu_7512RegexMatcher3endEiR10UErrorCode(ptr noundef nonnull align 8 dereferenceable(336) %mXMLCharData, i32 noundef 0, ptr noundef nonnull align 4 dereferenceable(4) %status)
          to label %invoke.cont12 unwind label %lpad

invoke.cont12:                                    ; preds = %invoke.cont9
  store i32 %call13, ptr %fPos, align 8
  br label %nrvo.skipdtor

lpad:                                             ; preds = %invoke.cont9, %invoke.cont5, %invoke.cont3, %if.then, %entry
  %1 = landingpad { ptr, i32 }
          cleanup
  call void @_ZN6icu_7513UnicodeStringD1Ev(ptr noundef nonnull align 8 dereferenceable(64) %agg.result) #11
  resume { ptr, i32 } %1

nrvo.skipdtor:                                    ; preds = %invoke.cont, %invoke.cont12
  ret void
}